; Function Attrs: mustprogress uwtable
define hidden void @_ZN4cvc58internal8decision11JustifyInfo3setENS0_12NodeTemplateILb0EEENS0_4prop8SatValueE(ptr noundef nonnull align 8 dereferenceable(144) %this, ptr nocapture noundef readonly %n, i32 noundef %desiredVal) local_unnamed_addr #3 align 2 {
entry:
  %d_pScope.i.i.i = getelementptr inbounds i8, ptr %this, i64 8
  %0 = load ptr, ptr %d_pScope.i.i.i, align 8
  %1 = load ptr, ptr %0, align 8
  %_M_finish.i.i.i.i.i.i.i = getelementptr inbounds i8, ptr %1, i64 16
  %2 = load ptr, ptr %_M_finish.i.i.i.i.i.i.i, align 8
  %add.ptr.i.i.i.i.i.i.i = getelementptr inbounds i8, ptr %2, i64 -8
  %3 = load ptr, ptr %add.ptr.i.i.i.i.i.i.i, align 8
  %cmp.i.i.i.i = icmp eq ptr %3, %0
  br i1 %cmp.i.i.i.i, label %_ZN4cvc57context10ContextObj11makeCurrentEv.exit.i.i, label %if.then.i.i.i

if.then.i.i.i:                                    ; preds = %entry
  tail call void @_ZN4cvc57context10ContextObj6updateEv(ptr noundef nonnull align 8 dereferenceable(40) %this)
  br label %_ZN4cvc57context10ContextObj11makeCurrentEv.exit.i.i

_ZN4cvc57context10ContextObj11makeCurrentEv.exit.i.i: ; preds = %if.then.i.i.i, %entry
  %d_data.i.i = getelementptr inbounds i8, ptr %this, i64 40
  %4 = load ptr, ptr %d_data.i.i, align 8
  %5 = load ptr, ptr %n, align 8
  %cmp.not.i.i.i = icmp eq ptr %4, %5
  br i1 %cmp.not.i.i.i, label %_ZN4cvc57context3CDOINS_8internal12NodeTemplateILb0EEEEaSERKS4_.exit, label %if.then.i1.i.i

if.then.i1.i.i:                                   ; preds = %_ZN4cvc57context10ContextObj11makeCurrentEv.exit.i.i
  store ptr %5, ptr %d_data.i.i, align 8
  br label %_ZN4cvc57context3CDOINS_8internal12NodeTemplateILb0EEEEaSERKS4_.exit

_ZN4cvc57context3CDOINS_8internal12NodeTemplateILb0EEEEaSERKS4_.exit: ; preds = %_ZN4cvc57context10ContextObj11makeCurrentEv.exit.i.i, %if.then.i1.i.i
  %d_pScope.i.i.i1 = getelementptr inbounds i8, ptr %this, i64 56
  %6 = load ptr, ptr %d_pScope.i.i.i1, align 8
  %7 = load ptr, ptr %6, align 8
  %_M_finish.i.i.i.i.i.i.i2 = getelementptr inbounds i8, ptr %7, i64 16
  %8 = load ptr, ptr %_M_finish.i.i.i.i.i.i.i2, align 8
  %add.ptr.i.i.i.i.i.i.i3 = getelementptr inbounds i8, ptr %8, i64 -8
  %9 = load ptr, ptr %add.ptr.i.i.i.i.i.i.i3, align 8
  %cmp.i.i.i.i4 = icmp eq ptr %9, %6
  br i1 %cmp.i.i.i.i4, label %_ZN4cvc57context3CDOINS_8internal4prop8SatValueEEaSERKS4_.exit, label %if.then.i.i.i5

if.then.i.i.i5:                                   ; preds = %_ZN4cvc57context3CDOINS_8internal12NodeTemplateILb0EEEEaSERKS4_.exit
  %d_desiredVal = getelementptr inbounds i8, ptr %this, i64 48
  tail call void @_ZN4cvc57context10ContextObj6updateEv(ptr noundef nonnull align 8 dereferenceable(40) %d_desiredVal)
  br label %_ZN4cvc57context3CDOINS_8internal4prop8SatValueEEaSERKS4_.exit

_ZN4cvc57context3CDOINS_8internal4prop8SatValueEEaSERKS4_.exit: ; preds = %_ZN4cvc57context3CDOINS_8internal12NodeTemplateILb0EEEEaSERKS4_.exit, %if.then.i.i.i5
  %d_data.i.i6 = getelementptr inbounds i8, ptr %this, i64 88
  store i32 %desiredVal, ptr %d_data.i.i6, align 8
  %d_pScope.i.i.i7 = getelementptr inbounds i8, ptr %this, i64 104
  %10 = load ptr, ptr %d_pScope.i.i.i7, align 8
  %11 = load ptr, ptr %10, align 8
  %_M_finish.i.i.i.i.i.i.i8 = getelementptr inbounds i8, ptr %11, i64 16
  %12 = load ptr, ptr %_M_finish.i.i.i.i.i.i.i8, align 8
  %add.ptr.i.i.i.i.i.i.i9 = getelementptr inbounds i8, ptr %12, i64 -8
  %13 = load ptr, ptr %add.ptr.i.i.i.i.i.i.i9, align 8
  %cmp.i.i.i.i10 = icmp eq ptr %13, %10
  br i1 %cmp.i.i.i.i10, label %_ZN4cvc57context3CDOImEaSERKm.exit, label %if.then.i.i.i11

if.then.i.i.i11:                                  ; preds = %_ZN4cvc57context3CDOINS_8internal4prop8SatValueEEaSERKS4_.exit
  %d_childIndex = getelementptr inbounds i8, ptr %this, i64 96
  tail call void @_ZN4cvc57context10ContextObj6updateEv(ptr noundef nonnull align 8 dereferenceable(40) %d_childIndex)
  br label %_ZN4cvc57context3CDOImEaSERKm.exit

_ZN4cvc57context3CDOImEaSERKm.exit:               ; preds = %_ZN4cvc57context3CDOINS_8internal4prop8SatValueEEaSERKS4_.exit, %if.then.i.i.i11
  %d_data.i.i12 = getelementptr inbounds i8, ptr %this, i64 136
  store i64 0, ptr %d_data.i.i12, align 8
  ret void
}